; ModuleID = '11/921.c'
source_filename = "11/921.c"
target datalayout = "e-m:e-p270:32:32-p271:32:32-p272:64:64-i64:64-f80:128-n8:16:32:64-S128"
target triple = "x86_64-pc-linux-gnu"

@__const.main.mon = private unnamed_addr constant [12 x i32] [i32 31, i32 28, i32 31, i32 30, i32 31, i32 30, i32 31, i32 31, i32 30, i32 31, i32 30, i32 31], align 16
@.str = private unnamed_addr constant [9 x i8] c"%d %d %d\00", align 1
@.str.1 = private unnamed_addr constant [3 x i8] c"%d\00", align 1

; Function Attrs: noinline nounwind uwtable
define dso_local i32 @main() #0 {
  %1 = alloca i32, align 4
  %2 = alloca i32, align 4
  %3 = alloca i32, align 4
  %4 = alloca i32, align 4
  %5 = alloca i32, align 4
  %6 = alloca i32, align 4
  %7 = alloca [12 x i32], align 16
  %8 = alloca i32, align 4
  store i32 0, i32* %1, align 4
  store i32 0, i32* %6, align 4
  %9 = bitcast [12 x i32]* %7 to i8*
  call void @llvm.memcpy.p0i8.p0i8.i64(i8* align 16 %9, i8* align 16 bitcast ([12 x i32]* @__const.main.mon to i8*), i64 48, i1 false)
  %10 = call i32 (i8*, ...) @__isoc99_scanf(i8* getelementptr inbounds ([9 x i8], [9 x i8]* @.str, i64 0, i64 0), i32* %2, i32* %3, i32* %4)
  %11 = load i32, i32* %2, align 4
  %12 = srem i32 %11, 100
  %13 = icmp eq i32 %12, 0
  br i1 %13, label %14, label %21

14:                                               ; preds = %0
  %15 = load i32, i32* %2, align 4
  %16 = srem i32 %15, 400
  %17 = icmp eq i32 %16, 0
  br i1 %17, label %18, label %19

18:                                               ; preds = %14
  store i32 1, i32* %5, align 4
  br label %20

19:                                               ; preds = %14
  store i32 0, i32* %5, align 4
  br label %20

20:                                               ; preds = %19, %18
  br label %28

21:                                               ; preds = %0
  %22 = load i32, i32* %2, align 4
  %23 = srem i32 %22, 4
  %24 = icmp eq i32 %23, 0
  br i1 %24, label %25, label %26

25:                                               ; preds = %21
  store i32 1, i32* %5, align 4
  br label %27

26:                                               ; preds = %21
  store i32 0, i32* %5, align 4
  br label %27

27:                                               ; preds = %26, %25
  br label %28

28:                                               ; preds = %27, %20
  %29 = load i32, i32* %5, align 4
  switch i32 %29, label %79 [
    i32 1, label %30
    i32 0, label %59
  ]

30:                                               ; preds = %28
  store i32 0, i32* %8, align 4
  br label %31

31:                                               ; preds = %43, %30
  %32 = load i32, i32* %8, align 4
  %33 = load i32, i32* %3, align 4
  %34 = sub nsw i32 %33, 1
  %35 = icmp slt i32 %32, %34
  br i1 %35, label %36, label %46

36:                                               ; preds = %31
  %37 = load i32, i32* %6, align 4
  %38 = load i32, i32* %8, align 4
  %39 = sext i32 %38 to i64
  %40 = getelementptr inbounds [12 x i32], [12 x i32]* %7, i64 0, i64 %39
  %41 = load i32, i32* %40, align 4
  %42 = add nsw i32 %37, %41
  store i32 %42, i32* %6, align 4
  br label %43

43:                                               ; preds = %36
  %44 = load i32, i32* %8, align 4
  %45 = add nsw i32 %44, 1
  store i32 %45, i32* %8, align 4
  br label %31

46:                                               ; preds = %31
  %47 = load i32, i32* %3, align 4
  %48 = icmp sge i32 %47, 3
  br i1 %48, label %49, label %54

49:                                               ; preds = %46
  %50 = load i32, i32* %6, align 4
  %51 = load i32, i32* %4, align 4
  %52 = add nsw i32 %50, %51
  %53 = add nsw i32 %52, 1
  store i32 %53, i32* %6, align 4
  br label %58

54:                                               ; preds = %46
  %55 = load i32, i32* %6, align 4
  %56 = load i32, i32* %4, align 4
  %57 = add nsw i32 %55, %56
  store i32 %57, i32* %6, align 4
  br label %58

58:                                               ; preds = %54, %49
  br label %79

59:                                               ; preds = %28
  store i32 0, i32* %8, align 4
  br label %60

60:                                               ; preds = %72, %59
  %61 = load i32, i32* %8, align 4
  %62 = load i32, i32* %3, align 4
  %63 = sub nsw i32 %62, 1
  %64 = icmp slt i32 %61, %63
  br i1 %64, label %65, label %75

65:                                               ; preds = %60
  %66 = load i32, i32* %6, align 4
  %67 = load i32, i32* %8, align 4
  %68 = sext i32 %67 to i64
  %69 = getelementptr inbounds [12 x i32], [12 x i32]* %7, i64 0, i64 %68
  %70 = load i32, i32* %69, align 4
  %71 = add nsw i32 %66, %70
  store i32 %71, i32* %6, align 4
  br label %72

72:                                               ; preds = %65
  %73 = load i32, i32* %8, align 4
  %74 = add nsw i32 %73, 1
  store i32 %74, i32* %8, align 4
  br label %60

75:                                               ; preds = %60
  %76 = load i32, i32* %6, align 4
  %77 = load i32, i32* %4, align 4
  %78 = add nsw i32 %76, %77
  store i32 %78, i32* %6, align 4
  br label %79

79:                                               ; preds = %75, %28, %58
  %80 = load i32, i32* %6, align 4
  %81 = call i32 (i8*, ...) @printf(i8* getelementptr inbounds ([3 x i8], [3 x i8]* @.str.1, i64 0, i64 0), i32 %80)
  ret i32 0
}

; Function Attrs: argmemonly nounwind willreturn
declare void @llvm.memcpy.p0i8.p0i8.i64(i8* noalias nocapture writeonly, i8* noalias nocapture readonly, i64, i1 immarg) #1

declare dso_local i32 @__isoc99_scanf(i8*, ...) #2

declare dso_local i32 @printf(i8*, ...) #2


!llvm.module.flags = !{!0}
!llvm.ident = !{!1}

!0 = !{i32 1, !"wchar_size", i32 4}
!1 = !{!"clang version 10.0.0-4ubuntu1 "}
